target datalayout = "e-m:e-p270:32:32-p271:32:32-p272:64:64-i64:64-i128:128-f80:128-n8:16:32:64-S128"
target triple = "x86_64-pc-linux-gnu"

%struct.AVComplexInt32 = type { i32, i32 }
%struct.AVTXContext = type { i32, i32, ptr, ptr, ptr, ptr, [4 x ptr], i32, [4 x ptr], ptr, i32, i64, i32, float, double, ptr }

; Function Attrs: nounwind uwtable
define internal void @ff_tx_rdft_r2i_int32_c(ptr noundef %0, ptr noundef %1, ptr noundef %2, i64 noundef %3) #4 {
  %5 = alloca ptr, align 8
  %6 = alloca ptr, align 8
  %7 = alloca ptr, align 8
  %8 = alloca i64, align 8
  %9 = alloca i32, align 4
  %10 = alloca i32, align 4
  %11 = alloca i32, align 4
  %12 = alloca i32, align 4
  %13 = alloca ptr, align 8
  %14 = alloca ptr, align 8
  %15 = alloca ptr, align 8
  %16 = alloca ptr, align 8
  %17 = alloca ptr, align 8
  %18 = alloca i32, align 4
  %19 = alloca i32, align 4
  %20 = alloca [4 x i32], align 16
  %21 = alloca %struct.AVComplexInt32, align 4
  %22 = alloca %struct.AVComplexInt32, align 4
  %23 = alloca i32, align 4
  store ptr %0, ptr %5, align 8, !tbaa !17
  store ptr %1, ptr %6, align 8, !tbaa !8
  store ptr %2, ptr %7, align 8, !tbaa !8
  store i64 %3, ptr %8, align 8, !tbaa !30
  call void @llvm.lifetime.start.p0(i64 4, ptr %9) #10
  %24 = load ptr, ptr %5, align 8, !tbaa !17
  %25 = getelementptr inbounds nuw %struct.AVTXContext, ptr %24, i32 0, i32 0
  %26 = load i32, ptr %25, align 8, !tbaa !21
  store i32 %26, ptr %9, align 4, !tbaa !4
  call void @llvm.lifetime.start.p0(i64 4, ptr %10) #10
  %27 = load i32, ptr %9, align 4, !tbaa !4
  %28 = ashr i32 %27, 1
  store i32 %28, ptr %10, align 4, !tbaa !4
  call void @llvm.lifetime.start.p0(i64 4, ptr %11) #10
  %29 = load i32, ptr %9, align 4, !tbaa !4
  %30 = ashr i32 %29, 2
  store i32 %30, ptr %11, align 4, !tbaa !4
  call void @llvm.lifetime.start.p0(i64 4, ptr %12) #10
  %31 = load i32, ptr %9, align 4, !tbaa !4
  %32 = add nsw i32 %31, 4
  %33 = sub nsw i32 %32, 1
  %34 = and i32 %33, -4
  %35 = sdiv i32 %34, 4
  store i32 %35, ptr %12, align 4, !tbaa !4
  call void @llvm.lifetime.start.p0(i64 8, ptr %13) #10
  %36 = load ptr, ptr %5, align 8, !tbaa !17
  %37 = getelementptr inbounds nuw %struct.AVTXContext, ptr %36, i32 0, i32 3
  %38 = load ptr, ptr %37, align 8, !tbaa !31
  store ptr %38, ptr %13, align 8, !tbaa !19
  call void @llvm.lifetime.start.p0(i64 8, ptr %14) #10
  %39 = load ptr, ptr %13, align 8, !tbaa !19
  %40 = getelementptr inbounds i32, ptr %39, i64 8
  store ptr %40, ptr %14, align 8, !tbaa !19
  call void @llvm.lifetime.start.p0(i64 8, ptr %15) #10
  %41 = load ptr, ptr %14, align 8, !tbaa !19
  %42 = load i32, ptr %12, align 4, !tbaa !4
  %43 = sext i32 %42 to i64
  %44 = getelementptr inbounds i32, ptr %41, i64 %43
  store ptr %44, ptr %15, align 8, !tbaa !19
  call void @llvm.lifetime.start.p0(i64 8, ptr %16) #10
  %45 = load ptr, ptr %6, align 8, !tbaa !8
  store ptr %45, ptr %16, align 8, !tbaa !57
  call void @llvm.lifetime.start.p0(i64 8, ptr %17) #10
  %46 = load ptr, ptr %6, align 8, !tbaa !8
  store ptr %46, ptr %17, align 8, !tbaa !19
  call void @llvm.lifetime.start.p0(i64 4, ptr %18) #10
  %47 = load ptr, ptr %5, align 8, !tbaa !17
  %48 = getelementptr inbounds nuw %struct.AVTXContext, ptr %47, i32 0, i32 6
  %49 = getelementptr inbounds [4 x ptr], ptr %48, i64 0, i64 0
  %50 = load ptr, ptr %49, align 8, !tbaa !8
  %51 = load ptr, ptr %5, align 8, !tbaa !17
  %52 = getelementptr inbounds nuw %struct.AVTXContext, ptr %51, i32 0, i32 5
  %53 = load ptr, ptr %52, align 8, !tbaa !65
  %54 = getelementptr inbounds %struct.AVTXContext, ptr %53, i64 0
  %55 = load ptr, ptr %6, align 8, !tbaa !8
  %56 = load ptr, ptr %7, align 8, !tbaa !8
  call void %50(ptr noundef %54, ptr noundef %55, ptr noundef %56, i64 noundef 8)
  %57 = load ptr, ptr %16, align 8, !tbaa !57
  %58 = getelementptr inbounds %struct.AVComplexInt32, ptr %57, i64 0
  %59 = getelementptr inbounds nuw %struct.AVComplexInt32, ptr %58, i32 0, i32 0
  %60 = load i32, ptr %59, align 4, !tbaa !32
  store i32 %60, ptr %18, align 4, !tbaa !4
  %61 = load i32, ptr %18, align 4, !tbaa !4
  %62 = load ptr, ptr %16, align 8, !tbaa !57
  %63 = getelementptr inbounds %struct.AVComplexInt32, ptr %62, i64 0
  %64 = getelementptr inbounds nuw %struct.AVComplexInt32, ptr %63, i32 0, i32 1
  %65 = load i32, ptr %64, align 4, !tbaa !34
  %66 = add nsw i32 %61, %65
  %67 = load ptr, ptr %16, align 8, !tbaa !57
  %68 = getelementptr inbounds %struct.AVComplexInt32, ptr %67, i64 0
  %69 = getelementptr inbounds nuw %struct.AVComplexInt32, ptr %68, i32 0, i32 0
  store i32 %66, ptr %69, align 4, !tbaa !32
  %70 = load i32, ptr %18, align 4, !tbaa !4
  %71 = load ptr, ptr %16, align 8, !tbaa !57
  %72 = getelementptr inbounds %struct.AVComplexInt32, ptr %71, i64 0
  %73 = getelementptr inbounds nuw %struct.AVComplexInt32, ptr %72, i32 0, i32 1
  %74 = load i32, ptr %73, align 4, !tbaa !34
  %75 = sub nsw i32 %70, %74
  store i32 %75, ptr %18, align 4, !tbaa !4
  %76 = load ptr, ptr %13, align 8, !tbaa !19
  %77 = getelementptr inbounds i32, ptr %76, i64 0
  %78 = load i32, ptr %77, align 4, !tbaa !4
  %79 = sext i32 %78 to i64
  %80 = load ptr, ptr %16, align 8, !tbaa !57
  %81 = getelementptr inbounds %struct.AVComplexInt32, ptr %80, i64 0
  %82 = getelementptr inbounds nuw %struct.AVComplexInt32, ptr %81, i32 0, i32 0
  %83 = load i32, ptr %82, align 4, !tbaa !32
  %84 = sext i32 %83 to i64
  %85 = mul nsw i64 %79, %84
  %86 = add nsw i64 %85, 1073741824
  %87 = ashr i64 %86, 31
  %88 = trunc i64 %87 to i32
  %89 = load ptr, ptr %16, align 8, !tbaa !57
  %90 = getelementptr inbounds %struct.AVComplexInt32, ptr %89, i64 0
  %91 = getelementptr inbounds nuw %struct.AVComplexInt32, ptr %90, i32 0, i32 0
  store i32 %88, ptr %91, align 4, !tbaa !32
  %92 = load ptr, ptr %13, align 8, !tbaa !19
  %93 = getelementptr inbounds i32, ptr %92, i64 1
  %94 = load i32, ptr %93, align 4, !tbaa !4
  %95 = sext i32 %94 to i64
  %96 = load i32, ptr %18, align 4, !tbaa !4
  %97 = sext i32 %96 to i64
  %98 = mul nsw i64 %95, %97
  %99 = add nsw i64 %98, 1073741824
  %100 = ashr i64 %99, 31
  %101 = trunc i64 %100 to i32
  store i32 %101, ptr %18, align 4, !tbaa !4
  %102 = load ptr, ptr %13, align 8, !tbaa !19
  %103 = getelementptr inbounds i32, ptr %102, i64 2
  %104 = load i32, ptr %103, align 4, !tbaa !4
  %105 = sext i32 %104 to i64
  %106 = load ptr, ptr %16, align 8, !tbaa !57
  %107 = load i32, ptr %11, align 4, !tbaa !4
  %108 = sext i32 %107 to i64
  %109 = getelementptr inbounds %struct.AVComplexInt32, ptr %106, i64 %108
  %110 = getelementptr inbounds nuw %struct.AVComplexInt32, ptr %109, i32 0, i32 0
  %111 = load i32, ptr %110, align 4, !tbaa !32
  %112 = sext i32 %111 to i64
  %113 = mul nsw i64 %105, %112
  %114 = add nsw i64 %113, 1073741824
  %115 = ashr i64 %114, 31
  %116 = trunc i64 %115 to i32
  %117 = load ptr, ptr %16, align 8, !tbaa !57
  %118 = load i32, ptr %11, align 4, !tbaa !4
  %119 = sext i32 %118 to i64
  %120 = getelementptr inbounds %struct.AVComplexInt32, ptr %117, i64 %119
  %121 = getelementptr inbounds nuw %struct.AVComplexInt32, ptr %120, i32 0, i32 0
  store i32 %116, ptr %121, align 4, !tbaa !32
  %122 = load ptr, ptr %13, align 8, !tbaa !19
  %123 = getelementptr inbounds i32, ptr %122, i64 3
  %124 = load i32, ptr %123, align 4, !tbaa !4
  %125 = sext i32 %124 to i64
  %126 = load ptr, ptr %16, align 8, !tbaa !57
  %127 = load i32, ptr %11, align 4, !tbaa !4
  %128 = sext i32 %127 to i64
  %129 = getelementptr inbounds %struct.AVComplexInt32, ptr %126, i64 %128
  %130 = getelementptr inbounds nuw %struct.AVComplexInt32, ptr %129, i32 0, i32 1
  %131 = load i32, ptr %130, align 4, !tbaa !34
  %132 = sext i32 %131 to i64
  %133 = mul nsw i64 %125, %132
  %134 = add nsw i64 %133, 1073741824
  %135 = ashr i64 %134, 31
  %136 = trunc i64 %135 to i32
  %137 = load ptr, ptr %16, align 8, !tbaa !57
  %138 = load i32, ptr %11, align 4, !tbaa !4
  %139 = sext i32 %138 to i64
  %140 = getelementptr inbounds %struct.AVComplexInt32, ptr %137, i64 %139
  %141 = getelementptr inbounds nuw %struct.AVComplexInt32, ptr %140, i32 0, i32 1
  store i32 %136, ptr %141, align 4, !tbaa !34
  call void @llvm.lifetime.start.p0(i64 4, ptr %19) #10
  store i32 1, ptr %19, align 4, !tbaa !4
  br label %142

142:                                              ; preds = %243, %4
  %143 = load i32, ptr %19, align 4, !tbaa !4
  %144 = load i32, ptr %11, align 4, !tbaa !4
  %145 = icmp sle i32 %143, %144
  br i1 %145, label %147, label %146

146:                                              ; preds = %142
  call void @llvm.lifetime.end.p0(i64 4, ptr %19) #10
  br label %246

147:                                              ; preds = %142
  call void @llvm.lifetime.start.p0(i64 16, ptr %20) #10
  call void @llvm.lifetime.start.p0(i64 8, ptr %21) #10
  %148 = load ptr, ptr %16, align 8, !tbaa !57
  %149 = load i32, ptr %19, align 4, !tbaa !4
  %150 = sext i32 %149 to i64
  %151 = getelementptr inbounds %struct.AVComplexInt32, ptr %148, i64 %150
  call void @llvm.memcpy.p0.p0.i64(ptr align 4 %21, ptr align 4 %151, i64 8, i1 false), !tbaa.struct !35
  call void @llvm.lifetime.start.p0(i64 8, ptr %22) #10
  %152 = load ptr, ptr %16, align 8, !tbaa !57
  %153 = load i32, ptr %10, align 4, !tbaa !4
  %154 = load i32, ptr %19, align 4, !tbaa !4
  %155 = sub nsw i32 %153, %154
  %156 = sext i32 %155 to i64
  %157 = getelementptr inbounds %struct.AVComplexInt32, ptr %152, i64 %156
  call void @llvm.memcpy.p0.p0.i64(ptr align 4 %22, ptr align 4 %157, i64 8, i1 false), !tbaa.struct !35
  %158 = load ptr, ptr %13, align 8, !tbaa !19
  %159 = getelementptr inbounds i32, ptr %158, i64 5
  %160 = load i32, ptr %159, align 4, !tbaa !4
  %161 = sext i32 %160 to i64
  %162 = getelementptr inbounds nuw %struct.AVComplexInt32, ptr %21, i32 0, i32 1
  %163 = load i32, ptr %162, align 4, !tbaa !34
  %164 = getelementptr inbounds nuw %struct.AVComplexInt32, ptr %22, i32 0, i32 1
  %165 = load i32, ptr %164, align 4, !tbaa !34
  %166 = sub nsw i32 %163, %165
  %167 = sext i32 %166 to i64
  %168 = mul nsw i64 %161, %167
  %169 = add nsw i64 %168, 1073741824
  %170 = ashr i64 %169, 31
  %171 = trunc i64 %170 to i32
  %172 = getelementptr inbounds [4 x i32], ptr %20, i64 0, i64 0
  store i32 %171, ptr %172, align 16, !tbaa !4
  %173 = load ptr, ptr %13, align 8, !tbaa !19
  %174 = getelementptr inbounds i32, ptr %173, i64 6
  %175 = load i32, ptr %174, align 4, !tbaa !4
  %176 = sext i32 %175 to i64
  %177 = getelementptr inbounds nuw %struct.AVComplexInt32, ptr %21, i32 0, i32 1
  %178 = load i32, ptr %177, align 4, !tbaa !34
  %179 = getelementptr inbounds nuw %struct.AVComplexInt32, ptr %22, i32 0, i32 1
  %180 = load i32, ptr %179, align 4, !tbaa !34
  %181 = add nsw i32 %178, %180
  %182 = sext i32 %181 to i64
  %183 = mul nsw i64 %176, %182
  %184 = add nsw i64 %183, 1073741824
  %185 = ashr i64 %184, 31
  %186 = trunc i64 %185 to i32
  %187 = getelementptr inbounds [4 x i32], ptr %20, i64 0, i64 1
  store i32 %186, ptr %187, align 4, !tbaa !4
  %188 = load ptr, ptr %13, align 8, !tbaa !19
  %189 = getelementptr inbounds i32, ptr %188, i64 7
  %190 = load i32, ptr %189, align 4, !tbaa !4
  %191 = sext i32 %190 to i64
  %192 = getelementptr inbounds nuw %struct.AVComplexInt32, ptr %21, i32 0, i32 0
  %193 = load i32, ptr %192, align 4, !tbaa !32
  %194 = getelementptr inbounds nuw %struct.AVComplexInt32, ptr %22, i32 0, i32 0
  %195 = load i32, ptr %194, align 4, !tbaa !32
  %196 = sub nsw i32 %193, %195
  %197 = sext i32 %196 to i64
  %198 = mul nsw i64 %191, %197
  %199 = add nsw i64 %198, 1073741824
  %200 = ashr i64 %199, 31
  %201 = trunc i64 %200 to i32
  %202 = getelementptr inbounds [4 x i32], ptr %20, i64 0, i64 2
  store i32 %201, ptr %202, align 8, !tbaa !4
  %203 = getelementptr inbounds [4 x i32], ptr %20, i64 0, i64 1
  %204 = load i32, ptr %203, align 4, !tbaa !4
  %205 = load ptr, ptr %15, align 8, !tbaa !19
  %206 = load i32, ptr %19, align 4, !tbaa !4
  %207 = sext i32 %206 to i64
  %208 = getelementptr inbounds i32, ptr %205, i64 %207
  %209 = load i32, ptr %208, align 4, !tbaa !4
  %210 = mul nsw i32 %204, %209
  %211 = getelementptr inbounds [4 x i32], ptr %20, i64 0, i64 2
  %212 = load i32, ptr %211, align 8, !tbaa !4
  %213 = load ptr, ptr %14, align 8, !tbaa !19
  %214 = load i32, ptr %19, align 4, !tbaa !4
  %215 = sext i32 %214 to i64
  %216 = getelementptr inbounds i32, ptr %213, i64 %215
  %217 = load i32, ptr %216, align 4, !tbaa !4
  %218 = mul nsw i32 %212, %217
  %219 = add nsw i32 %210, %218
  %220 = getelementptr inbounds [4 x i32], ptr %20, i64 0, i64 3
  store i32 %219, ptr %220, align 4, !tbaa !4
  %221 = getelementptr inbounds [4 x i32], ptr %20, i64 0, i64 3
  %222 = load i32, ptr %221, align 4, !tbaa !4
  %223 = getelementptr inbounds [4 x i32], ptr %20, i64 0, i64 0
  %224 = load i32, ptr %223, align 16, !tbaa !4
  %225 = sub nsw i32 %222, %224
  %226 = load ptr, ptr %17, align 8, !tbaa !19
  %227 = load i32, ptr %19, align 4, !tbaa !4
  %228 = sub nsw i32 %227, 1
  %229 = sext i32 %228 to i64
  %230 = getelementptr inbounds i32, ptr %226, i64 %229
  store i32 %225, ptr %230, align 4, !tbaa !4
  %231 = getelementptr inbounds [4 x i32], ptr %20, i64 0, i64 0
  %232 = load i32, ptr %231, align 16, !tbaa !4
  %233 = getelementptr inbounds [4 x i32], ptr %20, i64 0, i64 3
  %234 = load i32, ptr %233, align 4, !tbaa !4
  %235 = add nsw i32 %232, %234
  %236 = load ptr, ptr %17, align 8, !tbaa !19
  %237 = load i32, ptr %9, align 4, !tbaa !4
  %238 = load i32, ptr %19, align 4, !tbaa !4
  %239 = sub nsw i32 %237, %238
  %240 = sub nsw i32 %239, 1
  %241 = sext i32 %240 to i64
  %242 = getelementptr inbounds i32, ptr %236, i64 %241
  store i32 %235, ptr %242, align 4, !tbaa !4
  call void @llvm.lifetime.end.p0(i64 8, ptr %22) #10
  call void @llvm.lifetime.end.p0(i64 8, ptr %21) #10
  call void @llvm.lifetime.end.p0(i64 16, ptr %20) #10
  br label %243

243:                                              ; preds = %147
  %244 = load i32, ptr %19, align 4, !tbaa !4
  %245 = add nsw i32 %244, 1
  store i32 %245, ptr %19, align 4, !tbaa !4
  br label %142, !llvm.loop !153

246:                                              ; preds = %146
  call void @llvm.lifetime.start.p0(i64 4, ptr %23) #10
  store i32 1, ptr %23, align 4, !tbaa !4
  br label %247

247:                                              ; preds = %267, %246
  %248 = load i32, ptr %23, align 4, !tbaa !4
  %249 = load i32, ptr %11, align 4, !tbaa !4
  %250 = add nsw i32 %249, 1
  %251 = icmp slt i32 %248, %250
  br i1 %251, label %253, label %252

252:                                              ; preds = %247
  call void @llvm.lifetime.end.p0(i64 4, ptr %23) #10
  br label %270

253:                                              ; preds = %247
  %254 = load ptr, ptr %17, align 8, !tbaa !19
  %255 = load i32, ptr %9, align 4, !tbaa !4
  %256 = load i32, ptr %23, align 4, !tbaa !4
  %257 = sub nsw i32 %255, %256
  %258 = sext i32 %257 to i64
  %259 = getelementptr inbounds i32, ptr %254, i64 %258
  %260 = load i32, ptr %259, align 4, !tbaa !4
  %261 = load ptr, ptr %17, align 8, !tbaa !19
  %262 = load i32, ptr %10, align 4, !tbaa !4
  %263 = load i32, ptr %23, align 4, !tbaa !4
  %264 = sub nsw i32 %262, %263
  %265 = sext i32 %264 to i64
  %266 = getelementptr inbounds i32, ptr %261, i64 %265
  store i32 %260, ptr %266, align 4, !tbaa !4
  br label %267

267:                                              ; preds = %253
  %268 = load i32, ptr %23, align 4, !tbaa !4
  %269 = add nsw i32 %268, 1
  store i32 %269, ptr %23, align 4, !tbaa !4
  br label %247, !llvm.loop !154

270:                                              ; preds = %252
  call void @llvm.lifetime.end.p0(i64 4, ptr %18) #10
  call void @llvm.lifetime.end.p0(i64 8, ptr %17) #10
  call void @llvm.lifetime.end.p0(i64 8, ptr %16) #10
  call void @llvm.lifetime.end.p0(i64 8, ptr %15) #10
  call void @llvm.lifetime.end.p0(i64 8, ptr %14) #10
  call void @llvm.lifetime.end.p0(i64 8, ptr %13) #10
  call void @llvm.lifetime.end.p0(i64 4, ptr %12) #10
  call void @llvm.lifetime.end.p0(i64 4, ptr %11) #10
  call void @llvm.lifetime.end.p0(i64 4, ptr %10) #10
  call void @llvm.lifetime.end.p0(i64 4, ptr %9) #10
  ret void
}