; Function Attrs: nounwind uwtable
define internal void @ff_tx_rdft_r2i_int32_c(ptr noundef readonly captures(none) %0, ptr noundef %1, ptr noundef %2, i64 %3) #3 {
  %5 = load i32, ptr %0, align 8, !tbaa !16
  %6 = ashr i32 %5, 1
  %7 = ashr i32 %5, 2
  %8 = add nsw i32 %5, 3
  %9 = ashr i32 %8, 2
  %10 = getelementptr inbounds nuw i8, ptr %0, i64 16
  %11 = load ptr, ptr %10, align 8, !tbaa !26
  %12 = getelementptr inbounds nuw i8, ptr %11, i64 32
  %13 = sext i32 %9 to i64
  %14 = getelementptr inbounds i32, ptr %12, i64 %13
  %15 = getelementptr inbounds nuw i8, ptr %0, i64 40
  %16 = load ptr, ptr %15, align 8, !tbaa !4
  %17 = getelementptr inbounds nuw i8, ptr %0, i64 32
  %18 = load ptr, ptr %17, align 8, !tbaa !55
  tail call void %16(ptr noundef %18, ptr noundef %1, ptr noundef %2, i64 noundef 8) #16
  %19 = load i32, ptr %1, align 4, !tbaa !48
  %20 = getelementptr inbounds nuw i8, ptr %1, i64 4
  %21 = load i32, ptr %20, align 4, !tbaa !50
  %22 = add nsw i32 %21, %19
  store i32 %22, ptr %1, align 4, !tbaa !48
  %23 = load i32, ptr %11, align 4, !tbaa !10
  %24 = sext i32 %23 to i64
  %25 = sext i32 %22 to i64
  %26 = mul nsw i64 %24, %25
  %27 = add nsw i64 %26, 1073741824
  %28 = lshr i64 %27, 31
  %29 = trunc i64 %28 to i32
  store i32 %29, ptr %1, align 4, !tbaa !48
  %30 = getelementptr inbounds nuw i8, ptr %11, i64 8
  %31 = load i32, ptr %30, align 4, !tbaa !10
  %32 = sext i32 %31 to i64
  %33 = sext i32 %7 to i64
  %34 = getelementptr inbounds %struct.AVComplexInt32, ptr %1, i64 %33
  %35 = load i32, ptr %34, align 4, !tbaa !48
  %36 = sext i32 %35 to i64
  %37 = mul nsw i64 %36, %32
  %38 = add nsw i64 %37, 1073741824
  %39 = lshr i64 %38, 31
  %40 = trunc i64 %39 to i32
  store i32 %40, ptr %34, align 4, !tbaa !48
  %41 = getelementptr inbounds nuw i8, ptr %11, i64 12
  %42 = load i32, ptr %41, align 4, !tbaa !10
  %43 = sext i32 %42 to i64
  %44 = getelementptr inbounds nuw i8, ptr %34, i64 4
  %45 = load i32, ptr %44, align 4, !tbaa !50
  %46 = sext i32 %45 to i64
  %47 = mul nsw i64 %46, %43
  %48 = add nsw i64 %47, 1073741824
  %49 = lshr i64 %48, 31
  %50 = trunc i64 %49 to i32
  store i32 %50, ptr %44, align 4, !tbaa !50
  %invariant.gep = getelementptr i8, ptr %1, i64 -4
  %.not73 = icmp slt i32 %7, 1
  br i1 %.not73, label %._crit_edge, label %.lr.ph

.lr.ph:                                           ; preds = %4
  %51 = getelementptr inbounds nuw i8, ptr %11, i64 20
  %52 = getelementptr inbounds nuw i8, ptr %11, i64 24
  %53 = getelementptr inbounds nuw i8, ptr %11, i64 28
  %54 = sext i32 %6 to i64
  %55 = add nuw nsw i32 %7, 1
  %wide.trip.count = zext nneg i32 %55 to i64
  br label %59

.lr.ph77.preheader:                               ; preds = %59
  %56 = zext nneg i32 %5 to i64
  %57 = sext i32 %6 to i64
  %58 = add nuw nsw i32 %7, 1
  %wide.trip.count83 = zext nneg i32 %58 to i64
  br label %.lr.ph77

59:                                               ; preds = %.lr.ph, %59
  %indvars.iv = phi i64 [ 1, %.lr.ph ], [ %indvars.iv.next, %59 ]
  %60 = getelementptr inbounds nuw %struct.AVComplexInt32, ptr %1, i64 %indvars.iv
  %.sroa.05.0.copyload = load i32, ptr %60, align 4, !tbaa !10
  %.sroa.46.0..sroa_idx = getelementptr inbounds nuw i8, ptr %60, i64 4
  %.sroa.46.0.copyload = load i32, ptr %.sroa.46.0..sroa_idx, align 4, !tbaa !10
  %61 = sub nsw i64 %54, %indvars.iv
  %62 = getelementptr inbounds %struct.AVComplexInt32, ptr %1, i64 %61
  %.sroa.0.0.copyload = load i32, ptr %62, align 4, !tbaa !10
  %.sroa.4.0..sroa_idx = getelementptr inbounds nuw i8, ptr %62, i64 4
  %.sroa.4.0.copyload = load i32, ptr %.sroa.4.0..sroa_idx, align 4, !tbaa !10
  %63 = load i32, ptr %51, align 4, !tbaa !10
  %64 = sext i32 %63 to i64
  %65 = sub nsw i32 %.sroa.46.0.copyload, %.sroa.4.0.copyload
  %66 = sext i32 %65 to i64
  %67 = mul nsw i64 %64, %66
  %68 = add nsw i64 %67, 1073741824
  %69 = lshr i64 %68, 31
  %70 = trunc i64 %69 to i32
  %71 = load i32, ptr %52, align 4, !tbaa !10
  %72 = sext i32 %71 to i64
  %73 = add nsw i32 %.sroa.4.0.copyload, %.sroa.46.0.copyload
  %74 = sext i32 %73 to i64
  %75 = mul nsw i64 %72, %74
  %76 = add nsw i64 %75, 1073741824
  %77 = lshr i64 %76, 31
  %78 = trunc i64 %77 to i32
  %79 = load i32, ptr %53, align 4, !tbaa !10
  %80 = sext i32 %79 to i64
  %81 = sub nsw i32 %.sroa.05.0.copyload, %.sroa.0.0.copyload
  %82 = sext i32 %81 to i64
  %83 = mul nsw i64 %80, %82
  %84 = add nsw i64 %83, 1073741824
  %85 = lshr i64 %84, 31
  %86 = trunc i64 %85 to i32
  %87 = getelementptr inbounds nuw i32, ptr %14, i64 %indvars.iv
  %88 = load i32, ptr %87, align 4, !tbaa !10
  %89 = mul nsw i32 %88, %78
  %90 = getelementptr inbounds nuw i32, ptr %12, i64 %indvars.iv
  %91 = load i32, ptr %90, align 4, !tbaa !10
  %92 = mul nsw i32 %91, %86
  %93 = add nsw i32 %92, %89
  %94 = sub nsw i32 %93, %70
  %gep = getelementptr i32, ptr %invariant.gep, i64 %indvars.iv
  store i32 %94, ptr %gep, align 4, !tbaa !10
  %95 = add nsw i32 %93, %70
  %96 = trunc i64 %indvars.iv to i32
  %97 = xor i32 %96, -1
  %98 = add i32 %5, %97
  %99 = sext i32 %98 to i64
  %100 = getelementptr inbounds i32, ptr %1, i64 %99
  store i32 %95, ptr %100, align 4, !tbaa !10
  %indvars.iv.next = add nuw nsw i64 %indvars.iv, 1
  %exitcond.not = icmp eq i64 %indvars.iv.next, %wide.trip.count
  br i1 %exitcond.not, label %.lr.ph77.preheader, label %59, !llvm.loop !144

._crit_edge:                                      ; preds = %.lr.ph77, %4
  ret void

.lr.ph77:                                         ; preds = %.lr.ph77.preheader, %.lr.ph77
  %indvars.iv80 = phi i64 [ 1, %.lr.ph77.preheader ], [ %indvars.iv.next81, %.lr.ph77 ]
  %101 = sub nsw i64 %56, %indvars.iv80
  %102 = getelementptr inbounds i32, ptr %1, i64 %101
  %103 = load i32, ptr %102, align 4, !tbaa !10
  %104 = sub nsw i64 %57, %indvars.iv80
  %105 = getelementptr inbounds i32, ptr %1, i64 %104
  store i32 %103, ptr %105, align 4, !tbaa !10
  %indvars.iv.next81 = add nuw nsw i64 %indvars.iv80, 1
  %exitcond84.not = icmp eq i64 %indvars.iv.next81, %wide.trip.count83
  br i1 %exitcond84.not, label %._crit_edge, label %.lr.ph77, !llvm.loop !145
}